target datalayout = "e-m:e-p270:32:32-p271:32:32-p272:64:64-i64:64-i128:128-f80:128-n8:16:32:64-S128"
target triple = "x86_64-pc-linux-gnu"

%struct._value_string_ext = type { ptr, i32, i32, ptr, ptr }
%struct._uuid_t = type { i16, i8, [16 x i8] }

@bluetooth_uuids = global ptr null, align 8
@bluetooth_uuid_vals_ext = global %struct._value_string_ext { ptr @_try_val_to_str_ext_init, i32 0, i32 1434, ptr @bluetooth_uuid_vals, ptr @.str.1246 }, align 8
@.str.1251 = private unnamed_addr constant [8 x i8] c"Unknown\00", align 1

; Function Attrs: nounwind uwtable
define ptr @print_bluetooth_uuid(ptr noundef %0, ptr noundef %1) #1 {
  %3 = alloca ptr, align 8
  %4 = alloca ptr, align 8
  %5 = alloca ptr, align 8
  %6 = alloca ptr, align 8
  %7 = alloca ptr, align 8
  store ptr %0, ptr %4, align 8
  store ptr %1, ptr %5, align 8
  %8 = load ptr, ptr %5, align 8
  %9 = getelementptr inbounds %struct._uuid_t, ptr %8, i32 0, i32 0
  %10 = load i16, ptr %9, align 2
  %11 = icmp ne i16 %10, 0
  br i1 %11, label %12, label %23

12:                                               ; preds = %2
  %13 = load ptr, ptr %5, align 8
  %14 = getelementptr inbounds %struct._uuid_t, ptr %13, i32 0, i32 0
  %15 = load i16, ptr %14, align 2
  %16 = zext i16 %15 to i32
  %17 = call ptr @try_val_to_str_ext(i32 noundef %16, ptr noundef @bluetooth_uuid_vals_ext)
  store ptr %17, ptr %7, align 8
  %18 = load ptr, ptr %7, align 8
  %19 = icmp ne ptr %18, null
  br i1 %19, label %20, label %22

20:                                               ; preds = %12
  %21 = load ptr, ptr %7, align 8
  store ptr %21, ptr %3, align 8
  br label %39

22:                                               ; preds = %12
  br label %23

23:                                               ; preds = %22, %2
  %24 = load ptr, ptr %4, align 8
  %25 = load ptr, ptr %5, align 8
  %26 = call ptr @print_numeric_bluetooth_uuid(ptr noundef %24, ptr noundef %25)
  store ptr %26, ptr %6, align 8
  %27 = load ptr, ptr %6, align 8
  %28 = icmp ne ptr %27, null
  br i1 %28, label %29, label %38

29:                                               ; preds = %23
  %30 = load ptr, ptr @bluetooth_uuids, align 8
  %31 = load ptr, ptr %6, align 8
  %32 = call ptr @wmem_tree_lookup_string(ptr noundef %30, ptr noundef %31, i32 noundef 0)
  store ptr %32, ptr %6, align 8
  %33 = load ptr, ptr %6, align 8
  %34 = icmp ne ptr %33, null
  br i1 %34, label %35, label %37

35:                                               ; preds = %29
  %36 = load ptr, ptr %6, align 8
  store ptr %36, ptr %3, align 8
  br label %39

37:                                               ; preds = %29
  br label %38

38:                                               ; preds = %37, %23
  store ptr @.str.1251, ptr %3, align 8
  br label %39

39:                                               ; preds = %38, %35, %20
  %40 = load ptr, ptr %3, align 8
  ret ptr %40
}