; Function Attrs: nounwind uwtable
define nonnull ptr @print_bluetooth_uuid(ptr noundef %0, ptr noundef %1) local_unnamed_addr #1 {
  %3 = load i16, ptr %1, align 2
  %.not = icmp eq i16 %3, 0
  br i1 %.not, label %7, label %4

4:                                                ; preds = %2
  %5 = zext i16 %3 to i32
  %6 = tail call ptr @try_val_to_str_ext(i32 noundef %5, ptr noundef nonnull @bluetooth_uuid_vals_ext) #9
  %.not15 = icmp eq ptr %6, null
  br i1 %.not15, label %7, label %13

7:                                                ; preds = %4, %2
  %8 = tail call ptr @print_numeric_bluetooth_uuid(ptr noundef %0, ptr noundef nonnull %1)
  %.not16 = icmp eq ptr %8, null
  br i1 %.not16, label %12, label %9

9:                                                ; preds = %7
  %10 = load ptr, ptr @bluetooth_uuids, align 8
  %11 = tail call ptr @wmem_tree_lookup_string(ptr noundef %10, ptr noundef nonnull %8, i32 noundef 0) #9
  %.not17 = icmp eq ptr %11, null
  br i1 %.not17, label %12, label %13

12:                                               ; preds = %9, %7
  br label %13

13:                                               ; preds = %9, %4, %12
  %.0 = phi ptr [ @.str.1251, %12 ], [ %6, %4 ], [ %11, %9 ]
  ret ptr %.0
}